; Function Attrs: nounwind uwtable
define i32 @EVP_CipherFinal_ex(ptr noundef %0, ptr noundef %1, ptr noundef captures(address_is_null) %2) local_unnamed_addr #0 {
  %4 = getelementptr inbounds nuw i8, ptr %0, i64 16
  %5 = load i32, ptr %4, align 8, !tbaa !27
  %.not = icmp eq i32 %5, 0
  br i1 %.not, label %8, label %6

6:                                                ; preds = %3
  %7 = tail call i32 @EVP_EncryptFinal_ex(ptr noundef nonnull %0, ptr noundef %1, ptr noundef %2)
  br label %10

8:                                                ; preds = %3
  %9 = tail call i32 @EVP_DecryptFinal_ex(ptr noundef nonnull %0, ptr noundef %1, ptr noundef %2)
  br label %10

10:                                               ; preds = %8, %6
  %.0 = phi i32 [ %7, %6 ], [ %9, %8 ]
  ret i32 %.0
}